; Function Attrs: mustprogress uwtable
define hidden void @_ZN16fpa2bv_converter14mk_is_negativeEP9func_decljPKP4exprR7obj_refIS2_11ast_managerE(ptr noundef nonnull align 8 dereferenceable(496) %0, ptr noundef readnone captures(none) %1, i32 noundef %2, ptr noundef readonly captures(none) %3, ptr noundef nonnull align 8 captures(none) dereferenceable(16) %4) local_unnamed_addr #3 align 2 personality ptr @__gxx_personality_v0 {
  %6 = alloca %class.obj_ref, align 8
  %7 = alloca %class.obj_ref, align 8
  %8 = alloca %class.obj_ref, align 8
  call void @llvm.lifetime.start.p0(i64 16, ptr nonnull %6) #23
  %9 = getelementptr inbounds nuw i8, ptr %0, i64 8
  %10 = load ptr, ptr %9, align 8, !tbaa !130
  store ptr null, ptr %6, align 8, !tbaa !164
  %11 = getelementptr inbounds nuw i8, ptr %6, i64 8
  store ptr %10, ptr %11, align 8, !tbaa !6
  call void @llvm.lifetime.start.p0(i64 16, ptr nonnull %7) #23
  store ptr null, ptr %7, align 8, !tbaa !164
  %12 = getelementptr inbounds nuw i8, ptr %7, i64 8
  store ptr %10, ptr %12, align 8, !tbaa !6
  call void @llvm.lifetime.start.p0(i64 16, ptr nonnull %8) #23
  store ptr null, ptr %8, align 8, !tbaa !164
  %13 = getelementptr inbounds nuw i8, ptr %8, i64 8
  store ptr %10, ptr %13, align 8, !tbaa !6
  %14 = load ptr, ptr %3, align 8, !tbaa !122
  invoke void @_ZN16fpa2bv_converter9mk_is_nanEP4exprR7obj_refIS0_11ast_managerE(ptr noundef nonnull align 8 dereferenceable(496) %0, ptr noundef %14, ptr noundef nonnull align 8 dereferenceable(16) %6)
          to label %15 unwind label %73

15:                                               ; preds = %5
  %16 = load ptr, ptr %3, align 8, !tbaa !122
  invoke void @_ZN16fpa2bv_converter9mk_is_negEP4exprR7obj_refIS0_11ast_managerE(ptr noundef nonnull align 8 dereferenceable(496) %0, ptr noundef %16, ptr noundef nonnull align 8 dereferenceable(16) %7)
          to label %17 unwind label %73

17:                                               ; preds = %15
  %18 = load ptr, ptr %9, align 8, !tbaa !130
  %19 = load ptr, ptr %6, align 8, !tbaa !164
  %20 = invoke noundef ptr @_ZN11ast_manager6mk_appEiiP4expr(ptr noundef nonnull align 8 dereferenceable(976) %18, i32 noundef 0, i32 noundef 8, ptr noundef %19)
          to label %_ZN11ast_manager6mk_notEP4expr.exit unwind label %73

_ZN11ast_manager6mk_notEP4expr.exit:              ; preds = %17
  %.not.i = icmp eq ptr %20, null
  br i1 %.not.i, label %24, label %_ZN11ast_manager7inc_refEP3ast.exit.i

_ZN11ast_manager7inc_refEP3ast.exit.i:            ; preds = %_ZN11ast_manager6mk_notEP4expr.exit
  %21 = getelementptr inbounds nuw i8, ptr %20, i64 8
  %22 = load i32, ptr %21, align 4, !tbaa !125
  %23 = add i32 %22, 1
  store i32 %23, ptr %21, align 4, !tbaa !125
  br label %24

24:                                               ; preds = %_ZN11ast_manager6mk_notEP4expr.exit, %_ZN11ast_manager7inc_refEP3ast.exit.i
  store ptr %20, ptr %8, align 8, !tbaa !164
  %25 = load ptr, ptr %9, align 8, !tbaa !130
  %26 = load ptr, ptr %7, align 8, !tbaa !164
  %27 = invoke noundef ptr @_ZN11ast_manager6mk_appEiiP4exprS1_(ptr noundef nonnull align 8 dereferenceable(976) %25, i32 noundef 0, i32 noundef 5, ptr noundef %20, ptr noundef %26)
          to label %_ZN11ast_manager6mk_andEP4exprS1_.exit unwind label %73

_ZN11ast_manager6mk_andEP4exprS1_.exit:           ; preds = %24
  %.not.i6 = icmp eq ptr %27, null
  br i1 %.not.i6, label %31, label %_ZN11ast_manager7inc_refEP3ast.exit.i7

_ZN11ast_manager7inc_refEP3ast.exit.i7:           ; preds = %_ZN11ast_manager6mk_andEP4exprS1_.exit
  %28 = getelementptr inbounds nuw i8, ptr %27, i64 8
  %29 = load i32, ptr %28, align 4, !tbaa !125
  %30 = add i32 %29, 1
  store i32 %30, ptr %28, align 4, !tbaa !125
  br label %31

31:                                               ; preds = %_ZN11ast_manager7inc_refEP3ast.exit.i7, %_ZN11ast_manager6mk_andEP4exprS1_.exit
  %32 = load ptr, ptr %4, align 8, !tbaa !164
  %.not.i4.i8 = icmp eq ptr %32, null
  br i1 %.not.i4.i8, label %41, label %33

33:                                               ; preds = %31
  %34 = getelementptr inbounds nuw i8, ptr %4, i64 8
  %35 = load ptr, ptr %34, align 8, !tbaa !166
  %36 = getelementptr inbounds nuw i8, ptr %32, i64 8
  %37 = load i32, ptr %36, align 4, !tbaa !125
  %38 = add i32 %37, -1
  store i32 %38, ptr %36, align 4, !tbaa !125
  %39 = icmp eq i32 %38, 0
  br i1 %39, label %40, label %41

40:                                               ; preds = %33
  invoke void @_ZN11ast_manager11delete_nodeEP3ast(ptr noundef nonnull align 8 dereferenceable(976) %35, ptr noundef nonnull %32)
          to label %41 unwind label %73

41:                                               ; preds = %33, %31, %40
  store ptr %27, ptr %4, align 8, !tbaa !164
  br i1 %.not.i, label %_ZN7obj_refI4expr11ast_managerED2Ev.exit, label %42

42:                                               ; preds = %41
  %43 = getelementptr inbounds nuw i8, ptr %20, i64 8
  %44 = load i32, ptr %43, align 4, !tbaa !125
  %45 = add i32 %44, -1
  store i32 %45, ptr %43, align 4, !tbaa !125
  %46 = icmp eq i32 %45, 0
  br i1 %46, label %47, label %_ZN7obj_refI4expr11ast_managerED2Ev.exit

47:                                               ; preds = %42
  invoke void @_ZN11ast_manager11delete_nodeEP3ast(ptr noundef nonnull align 8 dereferenceable(976) %10, ptr noundef nonnull %20)
          to label %_ZN7obj_refI4expr11ast_managerED2Ev.exit unwind label %48

48:                                               ; preds = %47
  %49 = landingpad { ptr, i32 }
          catch ptr null
  %50 = extractvalue { ptr, i32 } %49, 0
  call void @__clang_call_terminate(ptr %50) #24
  unreachable

_ZN7obj_refI4expr11ast_managerED2Ev.exit:         ; preds = %41, %42, %47
  call void @llvm.lifetime.end.p0(i64 16, ptr nonnull %8) #23
  %51 = load ptr, ptr %7, align 8, !tbaa !164
  %.not.i.i11 = icmp eq ptr %51, null
  br i1 %.not.i.i11, label %_ZN7obj_refI4expr11ast_managerED2Ev.exit12, label %52

52:                                               ; preds = %_ZN7obj_refI4expr11ast_managerED2Ev.exit
  %53 = load ptr, ptr %12, align 8, !tbaa !166
  %54 = getelementptr inbounds nuw i8, ptr %51, i64 8
  %55 = load i32, ptr %54, align 4, !tbaa !125
  %56 = add i32 %55, -1
  store i32 %56, ptr %54, align 4, !tbaa !125
  %57 = icmp eq i32 %56, 0
  br i1 %57, label %58, label %_ZN7obj_refI4expr11ast_managerED2Ev.exit12

58:                                               ; preds = %52
  invoke void @_ZN11ast_manager11delete_nodeEP3ast(ptr noundef nonnull align 8 dereferenceable(976) %53, ptr noundef nonnull %51)
          to label %_ZN7obj_refI4expr11ast_managerED2Ev.exit12 unwind label %59

59:                                               ; preds = %58
  %60 = landingpad { ptr, i32 }
          catch ptr null
  %61 = extractvalue { ptr, i32 } %60, 0
  call void @__clang_call_terminate(ptr %61) #24
  unreachable

_ZN7obj_refI4expr11ast_managerED2Ev.exit12:       ; preds = %_ZN7obj_refI4expr11ast_managerED2Ev.exit, %52, %58
  call void @llvm.lifetime.end.p0(i64 16, ptr nonnull %7) #23
  %62 = load ptr, ptr %6, align 8, !tbaa !164
  %.not.i.i13 = icmp eq ptr %62, null
  br i1 %.not.i.i13, label %_ZN7obj_refI4expr11ast_managerED2Ev.exit14, label %63

63:                                               ; preds = %_ZN7obj_refI4expr11ast_managerED2Ev.exit12
  %64 = load ptr, ptr %11, align 8, !tbaa !166
  %65 = getelementptr inbounds nuw i8, ptr %62, i64 8
  %66 = load i32, ptr %65, align 4, !tbaa !125
  %67 = add i32 %66, -1
  store i32 %67, ptr %65, align 4, !tbaa !125
  %68 = icmp eq i32 %67, 0
  br i1 %68, label %69, label %_ZN7obj_refI4expr11ast_managerED2Ev.exit14

69:                                               ; preds = %63
  invoke void @_ZN11ast_manager11delete_nodeEP3ast(ptr noundef nonnull align 8 dereferenceable(976) %64, ptr noundef nonnull %62)
          to label %_ZN7obj_refI4expr11ast_managerED2Ev.exit14 unwind label %70

70:                                               ; preds = %69
  %71 = landingpad { ptr, i32 }
          catch ptr null
  %72 = extractvalue { ptr, i32 } %71, 0
  call void @__clang_call_terminate(ptr %72) #24
  unreachable

_ZN7obj_refI4expr11ast_managerED2Ev.exit14:       ; preds = %_ZN7obj_refI4expr11ast_managerED2Ev.exit12, %63, %69
  call void @llvm.lifetime.end.p0(i64 16, ptr nonnull %6) #23
  ret void

73:                                               ; preds = %40, %24, %17, %15, %5
  %74 = landingpad { ptr, i32 }
          cleanup
  call void @_ZN7obj_refI4expr11ast_managerED2Ev(ptr noundef nonnull align 8 dereferenceable(16) %8) #23
  call void @llvm.lifetime.end.p0(i64 16, ptr nonnull %8) #23
  call void @_ZN7obj_refI4expr11ast_managerED2Ev(ptr noundef nonnull align 8 dereferenceable(16) %7) #23
  call void @llvm.lifetime.end.p0(i64 16, ptr nonnull %7) #23
  call void @_ZN7obj_refI4expr11ast_managerED2Ev(ptr noundef nonnull align 8 dereferenceable(16) %6) #23
  call void @llvm.lifetime.end.p0(i64 16, ptr nonnull %6) #23
  resume { ptr, i32 } %74
}